target datalayout = "e-m:e-p270:32:32-p271:32:32-p272:64:64-i64:64-i128:128-f80:128-n8:16:32:64-S128"
target triple = "x86_64-pc-linux-gnu"

%struct.lxb_html_tag_fixname_t = type { ptr, i32 }
%struct.lxb_html_token_t = type { ptr, ptr, i64, i64, ptr, ptr, ptr, ptr, ptr, i64, i64, i32 }
%struct.lxb_dom_node = type { %struct.lxb_dom_event_target, i64, i64, i64, ptr, ptr, ptr, ptr, ptr, ptr, ptr, i32, i64 }
%struct.lxb_dom_event_target = type { ptr }
%struct.lxb_html_tree = type { ptr, ptr, ptr, ptr, ptr, ptr, ptr, %struct.lxb_html_tree_pending_table_t, ptr, i8, i8, i8, i8, i8, i8, ptr, ptr, ptr, i32, i64 }
%struct.lxb_html_tree_pending_table_t = type { ptr, i8 }
%struct.lexbor_array_t = type { ptr, i64, i64 }
%struct.lxb_html_element = type { %struct.lxb_dom_element, ptr, ptr }
%struct.lxb_dom_element = type { %struct.lxb_dom_node, i64, i64, ptr, ptr, ptr, ptr, ptr, i32 }

; Function Attrs: nounwind uwtable
define internal zeroext i1 @lxb_html_tag_is_void(i64 noundef %0) #0 {
  %2 = alloca i1, align 1
  %3 = alloca i64, align 8
  store i64 %0, ptr %3, align 8
  %4 = load i64, ptr %3, align 8
  switch i64 %4, label %6 [
    i64 18, label %5
    i64 23, label %5
    i64 32, label %5
    i64 40, label %5
    i64 55, label %5
    i64 100, label %5
    i64 105, label %5
    i64 106, label %5
    i64 115, label %5
    i64 124, label %5
    i64 146, label %5
    i64 166, label %5
    i64 188, label %5
    i64 194, label %5
  ]

5:                                                ; preds = %1, %1, %1, %1, %1, %1, %1, %1, %1, %1, %1, %1, %1, %1
  store i1 true, ptr %2, align 1
  br label %7

6:                                                ; preds = %1
  store i1 false, ptr %2, align 1
  br label %7

7:                                                ; preds = %6, %5
  %8 = load i1, ptr %2, align 1
  ret i1 %8
}

; Function Attrs: nounwind uwtable
define internal ptr @lxb_html_tree_open_elements_pop(ptr noundef %0) #0 {
  %2 = alloca ptr, align 8
  store ptr %0, ptr %2, align 8
  %3 = load ptr, ptr %2, align 8
  %4 = getelementptr inbounds %struct.lxb_html_tree, ptr %3, i32 0, i32 4
  %5 = load ptr, ptr %4, align 8
  %6 = call ptr @lexbor_array_pop(ptr noundef %5)
  ret ptr %6
}

; Function Attrs: nounwind uwtable
define internal void @lxb_html_tree_acknowledge_token_self_closing(ptr noundef %0, ptr noundef %1) #0 {
  %3 = alloca ptr, align 8
  %4 = alloca ptr, align 8
  %5 = alloca i8, align 1
  store ptr %0, ptr %3, align 8
  store ptr %1, ptr %4, align 8
  %6 = load ptr, ptr %4, align 8
  %7 = getelementptr inbounds %struct.lxb_html_token_t, ptr %6, i32 0, i32 11
  %8 = load i32, ptr %7, align 8
  %9 = and i32 %8, 2
  %10 = icmp eq i32 %9, 0
  br i1 %10, label %11, label %12

11:                                               ; preds = %2
  br label %23

12:                                               ; preds = %2
  %13 = load ptr, ptr %4, align 8
  %14 = getelementptr inbounds %struct.lxb_html_token_t, ptr %13, i32 0, i32 10
  %15 = load i64, ptr %14, align 8
  %16 = call zeroext i1 @lxb_html_tag_is_void(i64 noundef %15)
  %17 = zext i1 %16 to i8
  store i8 %17, ptr %5, align 1
  %18 = load i8, ptr %5, align 1
  %19 = trunc i8 %18 to i1
  br i1 %19, label %20, label %23

20:                                               ; preds = %12
  %21 = load ptr, ptr %3, align 8
  %22 = load ptr, ptr %4, align 8
  call void @lxb_html_tree_parse_error(ptr noundef %21, ptr noundef %22, i32 noundef 11)
  br label %23

23:                                               ; preds = %20, %12, %11
  ret void
}

; Function Attrs: nounwind uwtable
define internal ptr @lxb_html_tree_current_node(ptr noundef %0) #0 {
  %2 = alloca ptr, align 8
  %3 = alloca ptr, align 8
  store ptr %0, ptr %3, align 8
  %4 = load ptr, ptr %3, align 8
  %5 = getelementptr inbounds %struct.lxb_html_tree, ptr %4, i32 0, i32 4
  %6 = load ptr, ptr %5, align 8
  %7 = getelementptr inbounds %struct.lexbor_array_t, ptr %6, i32 0, i32 2
  %8 = load i64, ptr %7, align 8
  %9 = icmp eq i64 %8, 0
  br i1 %9, label %10, label %11

10:                                               ; preds = %1
  store ptr null, ptr %2, align 8
  br label %25

11:                                               ; preds = %1
  %12 = load ptr, ptr %3, align 8
  %13 = getelementptr inbounds %struct.lxb_html_tree, ptr %12, i32 0, i32 4
  %14 = load ptr, ptr %13, align 8
  %15 = getelementptr inbounds %struct.lexbor_array_t, ptr %14, i32 0, i32 0
  %16 = load ptr, ptr %15, align 8
  %17 = load ptr, ptr %3, align 8
  %18 = getelementptr inbounds %struct.lxb_html_tree, ptr %17, i32 0, i32 4
  %19 = load ptr, ptr %18, align 8
  %20 = getelementptr inbounds %struct.lexbor_array_t, ptr %19, i32 0, i32 2
  %21 = load i64, ptr %20, align 8
  %22 = sub i64 %21, 1
  %23 = getelementptr inbounds ptr, ptr %16, i64 %22
  %24 = load ptr, ptr %23, align 8
  store ptr %24, ptr %2, align 8
  br label %25

25:                                               ; preds = %11, %10
  %26 = load ptr, ptr %2, align 8
  ret ptr %26
}

; Function Attrs: nounwind uwtable
define internal ptr @lxb_html_tag_fixname_svg(i64 noundef %0) #0 {
  %2 = alloca ptr, align 8
  %3 = alloca i64, align 8
  store i64 %0, ptr %3, align 8
  %4 = load i64, ptr %3, align 8
  %5 = icmp uge i64 %4, 196
  br i1 %5, label %6, label %7

6:                                                ; preds = %1
  store ptr null, ptr %2, align 8
  br label %10

7:                                                ; preds = %1
  %8 = load i64, ptr %3, align 8
  %9 = getelementptr inbounds [196 x %struct.lxb_html_tag_fixname_t], ptr @lxb_html_tag_res_fixname_svg, i64 0, i64 %8
  store ptr %9, ptr %2, align 8
  br label %10

10:                                               ; preds = %7, %6
  %11 = load ptr, ptr %2, align 8
  ret ptr %11
}

; Function Attrs: nounwind uwtable
define internal ptr @lxb_html_tree_adjusted_current_node(ptr noundef %0) #0 {
  %2 = alloca ptr, align 8
  %3 = alloca ptr, align 8
  store ptr %0, ptr %3, align 8
  %4 = load ptr, ptr %3, align 8
  %5 = getelementptr inbounds %struct.lxb_html_tree, ptr %4, i32 0, i32 2
  %6 = load ptr, ptr %5, align 8
  %7 = icmp ne ptr %6, null
  br i1 %7, label %8, label %19

8:                                                ; preds = %1
  %9 = load ptr, ptr %3, align 8
  %10 = getelementptr inbounds %struct.lxb_html_tree, ptr %9, i32 0, i32 4
  %11 = load ptr, ptr %10, align 8
  %12 = getelementptr inbounds %struct.lexbor_array_t, ptr %11, i32 0, i32 2
  %13 = load i64, ptr %12, align 8
  %14 = icmp eq i64 %13, 1
  br i1 %14, label %15, label %19

15:                                               ; preds = %8
  %16 = load ptr, ptr %3, align 8
  %17 = getelementptr inbounds %struct.lxb_html_tree, ptr %16, i32 0, i32 2
  %18 = load ptr, ptr %17, align 8
  store ptr %18, ptr %2, align 8
  br label %22

19:                                               ; preds = %8, %1
  %20 = load ptr, ptr %3, align 8
  %21 = call ptr @lxb_html_tree_current_node(ptr noundef %20)
  store ptr %21, ptr %2, align 8
  br label %22

22:                                               ; preds = %19, %15
  %23 = load ptr, ptr %2, align 8
  ret ptr %23
}

; Function Attrs: nounwind uwtable
define internal zeroext i1 @lxb_html_tree_insertion_mode_foreign_content_anything_else(ptr noundef %0, ptr noundef %1) #0 {
  %3 = alloca i1, align 1
  %4 = alloca ptr, align 8
  %5 = alloca ptr, align 8
  %6 = alloca ptr, align 8
  %7 = alloca ptr, align 8
  %8 = alloca ptr, align 8
  store ptr %0, ptr %4, align 8
  store ptr %1, ptr %5, align 8
  %9 = load ptr, ptr %4, align 8
  %10 = call ptr @lxb_html_tree_adjusted_current_node(ptr noundef %9)
  store ptr %10, ptr %8, align 8
  %11 = load ptr, ptr %8, align 8
  %12 = getelementptr inbounds %struct.lxb_dom_node, ptr %11, i32 0, i32 3
  %13 = load i64, ptr %12, align 8
  %14 = icmp eq i64 %13, 3
  br i1 %14, label %15, label %18

15:                                               ; preds = %2
  %16 = load ptr, ptr %4, align 8
  %17 = getelementptr inbounds %struct.lxb_html_tree, ptr %16, i32 0, i32 17
  store ptr @lxb_html_tree_adjust_attributes_mathml, ptr %17, align 8
  br label %27

18:                                               ; preds = %2
  %19 = load ptr, ptr %8, align 8
  %20 = getelementptr inbounds %struct.lxb_dom_node, ptr %19, i32 0, i32 3
  %21 = load i64, ptr %20, align 8
  %22 = icmp eq i64 %21, 4
  br i1 %22, label %23, label %26

23:                                               ; preds = %18
  %24 = load ptr, ptr %4, align 8
  %25 = getelementptr inbounds %struct.lxb_html_tree, ptr %24, i32 0, i32 17
  store ptr @lxb_html_tree_adjust_attributes_svg, ptr %25, align 8
  br label %26

26:                                               ; preds = %23, %18
  br label %27

27:                                               ; preds = %26, %15
  %28 = load ptr, ptr %4, align 8
  %29 = load ptr, ptr %5, align 8
  %30 = load ptr, ptr %8, align 8
  %31 = getelementptr inbounds %struct.lxb_dom_node, ptr %30, i32 0, i32 3
  %32 = load i64, ptr %31, align 8
  %33 = call ptr @lxb_html_tree_insert_foreign_element(ptr noundef %28, ptr noundef %29, i64 noundef %32)
  store ptr %33, ptr %6, align 8
  %34 = load ptr, ptr %6, align 8
  %35 = icmp eq ptr %34, null
  br i1 %35, label %36, label %43

36:                                               ; preds = %27
  %37 = load ptr, ptr %4, align 8
  %38 = getelementptr inbounds %struct.lxb_html_tree, ptr %37, i32 0, i32 17
  store ptr null, ptr %38, align 8
  %39 = load ptr, ptr %4, align 8
  %40 = getelementptr inbounds %struct.lxb_html_tree, ptr %39, i32 0, i32 18
  store i32 2, ptr %40, align 8
  %41 = load ptr, ptr %4, align 8
  %42 = call zeroext i1 @lxb_html_tree_process_abort(ptr noundef %41)
  store i1 %42, ptr %3, align 1
  br label %107

43:                                               ; preds = %27
  %44 = load ptr, ptr %8, align 8
  %45 = getelementptr inbounds %struct.lxb_dom_node, ptr %44, i32 0, i32 3
  %46 = load i64, ptr %45, align 8
  %47 = icmp eq i64 %46, 4
  br i1 %47, label %48, label %74

48:                                               ; preds = %43
  %49 = load ptr, ptr %6, align 8
  %50 = getelementptr inbounds %struct.lxb_html_element, ptr %49, i32 0, i32 0
  %51 = getelementptr inbounds %struct.lxb_dom_element, ptr %50, i32 0, i32 0
  %52 = getelementptr inbounds %struct.lxb_dom_node, ptr %51, i32 0, i32 1
  %53 = load i64, ptr %52, align 8
  %54 = call ptr @lxb_html_tag_fixname_svg(i64 noundef %53)
  store ptr %54, ptr %7, align 8
  %55 = load ptr, ptr %7, align 8
  %56 = icmp ne ptr %55, null
  br i1 %56, label %57, label %73

57:                                               ; preds = %48
  %58 = load ptr, ptr %7, align 8
  %59 = getelementptr inbounds %struct.lxb_html_tag_fixname_t, ptr %58, i32 0, i32 0
  %60 = load ptr, ptr %59, align 8
  %61 = icmp ne ptr %60, null
  br i1 %61, label %62, label %73

62:                                               ; preds = %57
  %63 = load ptr, ptr %6, align 8
  %64 = getelementptr inbounds %struct.lxb_html_element, ptr %63, i32 0, i32 0
  %65 = load ptr, ptr %7, align 8
  %66 = getelementptr inbounds %struct.lxb_html_tag_fixname_t, ptr %65, i32 0, i32 0
  %67 = load ptr, ptr %66, align 8
  %68 = load ptr, ptr %7, align 8
  %69 = getelementptr inbounds %struct.lxb_html_tag_fixname_t, ptr %68, i32 0, i32 1
  %70 = load i32, ptr %69, align 8
  %71 = zext i32 %70 to i64
  %72 = call i32 @lxb_dom_element_qualified_name_set(ptr noundef %64, ptr noundef null, i64 noundef 0, ptr noundef %67, i64 noundef %71)
  br label %73

73:                                               ; preds = %62, %57, %48
  br label %74

74:                                               ; preds = %73, %43
  %75 = load ptr, ptr %4, align 8
  %76 = getelementptr inbounds %struct.lxb_html_tree, ptr %75, i32 0, i32 17
  store ptr null, ptr %76, align 8
  %77 = load ptr, ptr %5, align 8
  %78 = getelementptr inbounds %struct.lxb_html_token_t, ptr %77, i32 0, i32 11
  %79 = load i32, ptr %78, align 8
  %80 = and i32 %79, 2
  %81 = icmp eq i32 %80, 0
  br i1 %81, label %82, label %83

82:                                               ; preds = %74
  store i1 true, ptr %3, align 1
  br label %107

83:                                               ; preds = %74
  %84 = load ptr, ptr %4, align 8
  %85 = call ptr @lxb_html_tree_current_node(ptr noundef %84)
  store ptr %85, ptr %8, align 8
  %86 = load ptr, ptr %5, align 8
  %87 = getelementptr inbounds %struct.lxb_html_token_t, ptr %86, i32 0, i32 10
  %88 = load i64, ptr %87, align 8
  %89 = icmp eq i64 %88, 161
  br i1 %89, label %90, label %101

90:                                               ; preds = %83
  %91 = load ptr, ptr %8, align 8
  %92 = getelementptr inbounds %struct.lxb_dom_node, ptr %91, i32 0, i32 3
  %93 = load i64, ptr %92, align 8
  %94 = icmp eq i64 %93, 4
  br i1 %94, label %95, label %101

95:                                               ; preds = %90
  %96 = load ptr, ptr %4, align 8
  %97 = load ptr, ptr %5, align 8
  call void @lxb_html_tree_acknowledge_token_self_closing(ptr noundef %96, ptr noundef %97)
  %98 = load ptr, ptr %4, align 8
  %99 = load ptr, ptr %5, align 8
  %100 = call zeroext i1 @lxb_html_tree_insertion_mode_foreign_content_script_closed(ptr noundef %98, ptr noundef %99)
  store i1 %100, ptr %3, align 1
  br label %107

101:                                              ; preds = %90, %83
  %102 = load ptr, ptr %4, align 8
  %103 = call ptr @lxb_html_tree_open_elements_pop(ptr noundef %102)
  %104 = load ptr, ptr %4, align 8
  %105 = load ptr, ptr %5, align 8
  call void @lxb_html_tree_acknowledge_token_self_closing(ptr noundef %104, ptr noundef %105)
  br label %106

106:                                              ; preds = %101
  store i1 true, ptr %3, align 1
  br label %107

107:                                              ; preds = %106, %95, %82, %36
  %108 = load i1, ptr %3, align 1
  ret i1 %108
}