; Function Attrs: nounwind uwtable
define internal fastcc zeroext i1 @lxb_html_tree_insertion_mode_foreign_content_anything_else(ptr noundef %0, ptr noundef %1) unnamed_addr #0 {
  %3 = getelementptr inbounds i8, ptr %0, i64 16
  %4 = load ptr, ptr %3, align 8
  %.not.i = icmp ne ptr %4, null
  %.phi.trans.insert.i = getelementptr i8, ptr %0, i64 32
  %.val.pre.i = load ptr, ptr %.phi.trans.insert.i, align 8
  %.phi.trans.insert7.i = getelementptr inbounds i8, ptr %.val.pre.i, i64 16
  %.pre.i = load i64, ptr %.phi.trans.insert7.i, align 8
  %5 = icmp eq i64 %.pre.i, 1
  %or.cond.i = select i1 %.not.i, i1 %5, i1 false
  br i1 %or.cond.i, label %lxb_html_tree_adjusted_current_node.exit, label %._crit_edge.i

._crit_edge.i:                                    ; preds = %2
  %6 = icmp ne i64 %.pre.i, 0
  tail call void @llvm.assume(i1 %6)
  %7 = load ptr, ptr %.val.pre.i, align 8
  %8 = getelementptr ptr, ptr %7, i64 %.pre.i
  %9 = getelementptr i8, ptr %8, i64 -8
  %10 = load ptr, ptr %9, align 8
  br label %lxb_html_tree_adjusted_current_node.exit

lxb_html_tree_adjusted_current_node.exit:         ; preds = %2, %._crit_edge.i
  %.0.i = phi ptr [ %10, %._crit_edge.i ], [ %4, %2 ]
  %11 = getelementptr inbounds i8, ptr %.0.i, i64 24
  %12 = load i64, ptr %11, align 8
  switch i64 %12, label %15 [
    i64 3, label %.sink.split
    i64 4, label %13
  ]

13:                                               ; preds = %lxb_html_tree_adjusted_current_node.exit
  br label %.sink.split

.sink.split:                                      ; preds = %lxb_html_tree_adjusted_current_node.exit, %13
  %lxb_html_tree_adjust_attributes_svg.sink = phi ptr [ @lxb_html_tree_adjust_attributes_svg, %13 ], [ @lxb_html_tree_adjust_attributes_mathml, %lxb_html_tree_adjusted_current_node.exit ]
  %14 = getelementptr inbounds i8, ptr %0, i64 104
  store ptr %lxb_html_tree_adjust_attributes_svg.sink, ptr %14, align 8
  br label %15

15:                                               ; preds = %.sink.split, %lxb_html_tree_adjusted_current_node.exit
  %16 = load i64, ptr %11, align 8
  %17 = tail call ptr @lxb_html_tree_insert_foreign_element(ptr noundef nonnull %0, ptr noundef %1, i64 noundef %16) #4
  %18 = icmp eq ptr %17, null
  br i1 %18, label %19, label %23

19:                                               ; preds = %15
  %20 = getelementptr inbounds i8, ptr %0, i64 104
  store ptr null, ptr %20, align 8
  %21 = getelementptr inbounds i8, ptr %0, i64 112
  store i32 2, ptr %21, align 8
  %22 = tail call zeroext i1 @lxb_html_tree_process_abort(ptr noundef nonnull %0) #4
  br label %lxb_html_tree_acknowledge_token_self_closing.exit40

23:                                               ; preds = %15
  %24 = load i64, ptr %11, align 8
  %25 = icmp eq i64 %24, 4
  br i1 %25, label %26, label %38

26:                                               ; preds = %23
  %27 = getelementptr inbounds i8, ptr %17, i64 8
  %28 = load i64, ptr %27, align 8
  %29 = icmp ugt i64 %28, 195
  %30 = getelementptr inbounds [196 x %struct.lxb_html_tag_fixname_t], ptr @lxb_html_tag_res_fixname_svg, i64 0, i64 %28
  br i1 %29, label %38, label %31

31:                                               ; preds = %26
  %32 = load ptr, ptr %30, align 16
  %.not36 = icmp eq ptr %32, null
  br i1 %.not36, label %38, label %33

33:                                               ; preds = %31
  %34 = getelementptr inbounds i8, ptr %30, i64 8
  %35 = load i32, ptr %34, align 8
  %36 = zext i32 %35 to i64
  %37 = tail call i32 @lxb_dom_element_qualified_name_set(ptr noundef nonnull %17, ptr noundef null, i64 noundef 0, ptr noundef nonnull %32, i64 noundef %36) #4
  br label %38

38:                                               ; preds = %26, %31, %33, %23
  %39 = getelementptr inbounds i8, ptr %0, i64 104
  store ptr null, ptr %39, align 8
  %40 = getelementptr inbounds i8, ptr %1, i64 88
  %41 = load i32, ptr %40, align 8
  %42 = and i32 %41, 2
  %43 = icmp eq i32 %42, 0
  br i1 %43, label %lxb_html_tree_acknowledge_token_self_closing.exit40, label %44

44:                                               ; preds = %38
  %.val = load ptr, ptr %.phi.trans.insert.i, align 8
  %45 = getelementptr inbounds i8, ptr %.val, i64 16
  %46 = load i64, ptr %45, align 8
  %47 = icmp eq i64 %46, 0
  br i1 %47, label %lxb_html_tree_current_node.exit, label %48

48:                                               ; preds = %44
  %49 = load ptr, ptr %.val, align 8
  %50 = getelementptr ptr, ptr %49, i64 %46
  %51 = getelementptr i8, ptr %50, i64 -8
  %52 = load ptr, ptr %51, align 8
  br label %lxb_html_tree_current_node.exit

lxb_html_tree_current_node.exit:                  ; preds = %44, %48
  %.0.i39 = phi ptr [ %52, %48 ], [ null, %44 ]
  %53 = getelementptr inbounds i8, ptr %1, i64 80
  %54 = load i64, ptr %53, align 8
  %55 = icmp eq i64 %54, 161
  br i1 %55, label %56, label %61

56:                                               ; preds = %lxb_html_tree_current_node.exit
  %57 = getelementptr inbounds i8, ptr %.0.i39, i64 24
  %58 = load i64, ptr %57, align 8
  %59 = icmp eq i64 %58, 4
  br i1 %59, label %lxb_html_tree_acknowledge_token_self_closing.exit, label %61

lxb_html_tree_acknowledge_token_self_closing.exit: ; preds = %56
  %60 = tail call fastcc zeroext i1 @lxb_html_tree_insertion_mode_foreign_content_script_closed(ptr noundef nonnull %0, ptr noundef nonnull %1)
  br label %lxb_html_tree_acknowledge_token_self_closing.exit40

61:                                               ; preds = %56, %lxb_html_tree_current_node.exit
  %62 = tail call ptr @lexbor_array_pop(ptr noundef nonnull %.val) #4
  %63 = load i32, ptr %40, align 8
  %64 = and i32 %63, 2
  %65 = icmp eq i32 %64, 0
  br i1 %65, label %lxb_html_tree_acknowledge_token_self_closing.exit40, label %66

66:                                               ; preds = %61
  %67 = load i64, ptr %53, align 8
  switch i64 %67, label %lxb_html_tree_acknowledge_token_self_closing.exit40 [
    i64 18, label %68
    i64 23, label %68
    i64 32, label %68
    i64 40, label %68
    i64 55, label %68
    i64 100, label %68
    i64 105, label %68
    i64 106, label %68
    i64 115, label %68
    i64 124, label %68
    i64 146, label %68
    i64 166, label %68
    i64 188, label %68
    i64 194, label %68
  ]

68:                                               ; preds = %66, %66, %66, %66, %66, %66, %66, %66, %66, %66, %66, %66, %66, %66
  tail call void @lxb_html_tree_parse_error(ptr noundef nonnull %0, ptr noundef nonnull %1, i32 noundef 11) #4
  br label %lxb_html_tree_acknowledge_token_self_closing.exit40

lxb_html_tree_acknowledge_token_self_closing.exit40: ; preds = %68, %66, %61, %38, %lxb_html_tree_acknowledge_token_self_closing.exit, %19
  %.0 = phi i1 [ %22, %19 ], [ %60, %lxb_html_tree_acknowledge_token_self_closing.exit ], [ true, %38 ], [ true, %61 ], [ true, %66 ], [ true, %68 ]
  ret i1 %.0
}